; Function Attrs: mustprogress nounwind uwtable
define hidden noundef ptr @_ZN8GraphKit17sign_extend_shortEP4Node(ptr nocapture noundef nonnull readonly align 8 dereferenceable(84) %0, ptr noundef %1) local_unnamed_addr #0 align 2 {
  %3 = getelementptr inbounds i8, ptr %0, i64 32
  %4 = load ptr, ptr %3, align 8
  %5 = tail call align 8 ptr @llvm.threadlocal.address.p0(ptr align 8 @_ZN6Thread12_thr_currentE)
  %6 = load ptr, ptr %5, align 8
  %7 = getelementptr inbounds i8, ptr %6, i64 1808
  %8 = load ptr, ptr %7, align 8
  %9 = getelementptr inbounds i8, ptr %8, i64 128
  %10 = load ptr, ptr %9, align 8
  %11 = getelementptr inbounds i8, ptr %10, i64 728
  %12 = load ptr, ptr %11, align 8
  %13 = getelementptr inbounds i8, ptr %12, i64 40
  %14 = load ptr, ptr %13, align 8
  %15 = getelementptr inbounds i8, ptr %12, i64 32
  %16 = load ptr, ptr %15, align 8
  %17 = ptrtoint ptr %14 to i64
  %18 = ptrtoint ptr %16 to i64
  %19 = sub i64 %17, %18
  %.not.i.i.i = icmp ult i64 %19, 56
  br i1 %.not.i.i.i, label %22, label %20

20:                                               ; preds = %2
  %21 = getelementptr inbounds i8, ptr %16, i64 56
  store ptr %21, ptr %15, align 8
  br label %_ZN4NodenwEm.exit

22:                                               ; preds = %2
  %23 = tail call noundef ptr @_ZN5Arena4growEmN17AllocFailStrategy13AllocFailEnumE(ptr noundef nonnull align 8 dereferenceable(48) %12, i64 noundef 56, i32 noundef 0) #13
  br label %_ZN4NodenwEm.exit

_ZN4NodenwEm.exit:                                ; preds = %20, %22
  %.0.i.i.i = phi ptr [ %16, %20 ], [ %23, %22 ]
  %24 = icmp eq ptr %.0.i.i.i, null
  br i1 %24, label %29, label %25

25:                                               ; preds = %_ZN4NodenwEm.exit
  %26 = load ptr, ptr %3, align 8
  %27 = tail call noundef ptr @_ZN11PhaseValues6intconEi(ptr noundef nonnull align 8 dereferenceable(2400) %26, i32 noundef 16) #13
  tail call void @_ZN4NodeC2EPS_S0_S0_(ptr noundef nonnull align 8 dereferenceable(52) %.0.i.i.i, ptr noundef null, ptr noundef %1, ptr noundef %27) #13
  %28 = getelementptr inbounds i8, ptr %.0.i.i.i, i64 44
  store i32 1048576, ptr %28, align 4
  store ptr getelementptr inbounds inrange(-16, 192) (i8, ptr @_ZTV11LShiftINode, i64 16), ptr %.0.i.i.i, align 8
  br label %29

29:                                               ; preds = %25, %_ZN4NodenwEm.exit
  %30 = load ptr, ptr %4, align 8
  %31 = load ptr, ptr %30, align 8
  %32 = tail call noundef ptr %31(ptr noundef nonnull align 8 dereferenceable(2400) %4, ptr noundef %.0.i.i.i) #13
  %33 = load ptr, ptr %3, align 8
  %34 = load ptr, ptr %5, align 8
  %35 = getelementptr inbounds i8, ptr %34, i64 1808
  %36 = load ptr, ptr %35, align 8
  %37 = getelementptr inbounds i8, ptr %36, i64 128
  %38 = load ptr, ptr %37, align 8
  %39 = getelementptr inbounds i8, ptr %38, i64 728
  %40 = load ptr, ptr %39, align 8
  %41 = getelementptr inbounds i8, ptr %40, i64 40
  %42 = load ptr, ptr %41, align 8
  %43 = getelementptr inbounds i8, ptr %40, i64 32
  %44 = load ptr, ptr %43, align 8
  %45 = ptrtoint ptr %42 to i64
  %46 = ptrtoint ptr %44 to i64
  %47 = sub i64 %45, %46
  %.not.i.i.i4 = icmp ult i64 %47, 56
  br i1 %.not.i.i.i4, label %50, label %48

48:                                               ; preds = %29
  %49 = getelementptr inbounds i8, ptr %44, i64 56
  store ptr %49, ptr %43, align 8
  br label %_ZN4NodenwEm.exit6

50:                                               ; preds = %29
  %51 = tail call noundef ptr @_ZN5Arena4growEmN17AllocFailStrategy13AllocFailEnumE(ptr noundef nonnull align 8 dereferenceable(48) %40, i64 noundef 56, i32 noundef 0) #13
  br label %_ZN4NodenwEm.exit6

_ZN4NodenwEm.exit6:                               ; preds = %48, %50
  %.0.i.i.i5 = phi ptr [ %44, %48 ], [ %51, %50 ]
  %52 = icmp eq ptr %.0.i.i.i5, null
  br i1 %52, label %56, label %53

53:                                               ; preds = %_ZN4NodenwEm.exit6
  %54 = load ptr, ptr %3, align 8
  %55 = tail call noundef ptr @_ZN11PhaseValues6intconEi(ptr noundef nonnull align 8 dereferenceable(2400) %54, i32 noundef 16) #13
  tail call void @_ZN4NodeC2EPS_S0_S0_(ptr noundef nonnull align 8 dereferenceable(52) %.0.i.i.i5, ptr noundef null, ptr noundef %32, ptr noundef %55) #13
  store ptr getelementptr inbounds inrange(-16, 192) (i8, ptr @_ZTV11RShiftINode, i64 16), ptr %.0.i.i.i5, align 8
  br label %56

56:                                               ; preds = %53, %_ZN4NodenwEm.exit6
  %57 = load ptr, ptr %33, align 8
  %58 = load ptr, ptr %57, align 8
  %59 = tail call noundef ptr %58(ptr noundef nonnull align 8 dereferenceable(2400) %33, ptr noundef %.0.i.i.i5) #13
  ret ptr %59
}